target datalayout = "e-m:e-p270:32:32-p271:32:32-p272:64:64-i64:64-i128:128-f80:128-n8:16:32:64-S128"
target triple = "x86_64-pc-linux-gnu"

%class.QString = type { ptr }
%class.LayerDialog = type { %class.QDockWidget, ptr, ptr, ptr, ptr, ptr, %class.QMap, i8, [4 x %class.QString], [4 x %class.QMap.16], i32, %"class.std::vector.17", i32, ptr, ptr, i32, ptr, ptr, ptr }
%class.QDockWidget = type { %class.QWidget }
%class.QWidget = type { %class.QObject, %class.QPaintDevice, ptr }
%class.QObject = type { ptr, %class.QScopedPointer }
%class.QScopedPointer = type { ptr }
%class.QPaintDevice = type { ptr, i16, ptr }
%class.QMap = type { ptr }
%class.QMap.16 = type { ptr }
%"class.std::vector.17" = type { %"struct.std::_Vector_base.18" }
%"struct.std::_Vector_base.18" = type { %"struct.std::_Vector_base<int, std::allocator<int>>::_Vector_impl" }
%"struct.std::_Vector_base<int, std::allocator<int>>::_Vector_impl" = type { %"struct.std::_Vector_base<int, std::allocator<int>>::_Vector_impl_data" }
%"struct.std::_Vector_base<int, std::allocator<int>>::_Vector_impl_data" = type { ptr, ptr, ptr }
%class.MultiViewer_Container = type { %class.Splitter, %class.MeshDocument, ptr, i32, ptr, %class.QList.61 }
%class.Splitter = type { %class.QSplitter }
%class.QSplitter = type { %class.QFrame }
%class.QFrame = type { %class.QWidget }
%class.MeshDocument = type { %class.QObject, %class.GLLogStream, %class.FilterScript, %"class.std::__cxx11::list.43", %"class.std::__cxx11::list.48", i32, i32, %class.QString, %class.QString, %class.MeshDocumentStateData, i8, ptr, ptr }
%class.GLLogStream = type { %class.QObject, i32, %class.QList.36, %class.QMultiMap }
%class.QList.36 = type { %union.anon.38 }
%union.anon.38 = type { %struct.QListData }
%struct.QListData = type { ptr }
%class.QMultiMap = type { %class.QMap.39 }
%class.QMap.39 = type { ptr }
%class.FilterScript = type { %class.QObject, %class.QList.40 }
%class.QList.40 = type { %union.anon.42 }
%union.anon.42 = type { %struct.QListData }
%"class.std::__cxx11::list.43" = type { %"class.std::__cxx11::_List_base.44" }
%"class.std::__cxx11::_List_base.44" = type { %"struct.std::__cxx11::_List_base<MeshModel, std::allocator<MeshModel>>::_List_impl" }
%"struct.std::__cxx11::_List_base<MeshModel, std::allocator<MeshModel>>::_List_impl" = type { %"struct.std::__detail::_List_node_header" }
%"struct.std::__detail::_List_node_header" = type { %"struct.std::__detail::_List_node_base", i64 }
%"struct.std::__detail::_List_node_base" = type { ptr, ptr }
%"class.std::__cxx11::list.48" = type { %"class.std::__cxx11::_List_base.49" }
%"class.std::__cxx11::_List_base.49" = type { %"struct.std::__cxx11::_List_base<RasterModel, std::allocator<RasterModel>>::_List_impl" }
%"struct.std::__cxx11::_List_base<RasterModel, std::allocator<RasterModel>>::_List_impl" = type { %"struct.std::__detail::_List_node_header" }
%class.MeshDocumentStateData = type { %class.QReadWriteLock, %class.QMap.55 }
%class.QReadWriteLock = type { %class.QAtomicPointer }
%class.QAtomicPointer = type { %class.QBasicAtomicPointer }
%class.QBasicAtomicPointer = type { %"struct.std::atomic.53" }
%"struct.std::atomic.53" = type { %"struct.std::__atomic_base.54" }
%"struct.std::__atomic_base.54" = type { ptr }
%class.QMap.55 = type { ptr }
%class.QList.61 = type { %union.anon.63 }
%union.anon.63 = type { %struct.QListData }
%class.MainWindow = type { %class.QMainWindow, %class.MainWindowSetting, %class.QNetworkAccessManager, i32, i32, i8, ptr, ptr, ptr, ptr, ptr, ptr, %class.RichParameterList, ptr, %class.QByteArray, %class.QDir, ptr, ptr, ptr, ptr, ptr, ptr, ptr, ptr, ptr, ptr, ptr, ptr, ptr, ptr, ptr, ptr, ptr, ptr, ptr, ptr, ptr, ptr, ptr, ptr, ptr, ptr, ptr, ptr, ptr, ptr, ptr, ptr, ptr, ptr, ptr, ptr, ptr, ptr, ptr, ptr, ptr, ptr, ptr, ptr, ptr, ptr, ptr, ptr, ptr, ptr, ptr, ptr, ptr, ptr, ptr, ptr, ptr, ptr, [9 x ptr], [9 x ptr], ptr, ptr, ptr, ptr, ptr, ptr, ptr, ptr, ptr, ptr, ptr, ptr, ptr, ptr, ptr, ptr, ptr, ptr, ptr, ptr, ptr, ptr, ptr, ptr, ptr, ptr, ptr, ptr, ptr, ptr, ptr, ptr, ptr, ptr, ptr, ptr, ptr, ptr, ptr, ptr, ptr, ptr, ptr, ptr, ptr, ptr, ptr, ptr, ptr, ptr, ptr, ptr, ptr, ptr, ptr, ptr, ptr, ptr, ptr, ptr, ptr, ptr, ptr, ptr, ptr, ptr }
%class.QMainWindow = type { %class.QWidget }
%class.MainWindowSetting = type <{ i64, i8, [7 x i8], i64, i64, i64, i32, i32, %class.QString, i8, i8, [6 x i8] }>
%class.QNetworkAccessManager = type { %class.QObject }
%class.RichParameterList = type { %"class.std::__cxx11::list" }
%"class.std::__cxx11::list" = type { %"class.std::__cxx11::_List_base" }
%"class.std::__cxx11::_List_base" = type { %"struct.std::__cxx11::_List_base<RichParameter *, std::allocator<RichParameter *>>::_List_impl" }
%"struct.std::__cxx11::_List_base<RichParameter *, std::allocator<RichParameter *>>::_List_impl" = type { %"struct.std::__detail::_List_node_header" }
%class.QByteArray = type { ptr }
%class.QDir = type { %class.QSharedDataPointer }
%class.QSharedDataPointer = type { ptr }
%"struct.vcg::GLMeshAttributesInfo::ATT_NAMES" = type { i32 }
%"class.std::exception" = type { ptr }
%"class.std::__cxx11::basic_string" = type { %"struct.std::__cxx11::basic_string<char>::_Alloc_hider", i64, %union.anon.227 }
%"struct.std::__cxx11::basic_string<char>::_Alloc_hider" = type { ptr }
%union.anon.227 = type { i64, [8 x i8] }
%"class.std::allocator.224" = type { i8 }
%"struct.vcg::GLMeshAttributesInfo::Exception" = type { %"class.std::exception", %"class.std::__cxx11::basic_string" }

@_ZTVSt9exception = external unnamed_addr constant { [5 x ptr] }, align 8
@.str.135 = private unnamed_addr constant [20 x i8] c"Out of range value\0A\00", align 1
@_ZTIN3vcg20GLMeshAttributesInfo9ExceptionE = linkonce_odr constant { ptr, ptr, ptr } { ptr getelementptr inbounds (ptr, ptr @_ZTVN10__cxxabiv120__si_class_type_infoE, i64 2), ptr @_ZTSN3vcg20GLMeshAttributesInfo9ExceptionE, ptr @_ZTISt9exception }, comdat, align 8

; Function Attrs: mustprogress nounwind uwtable
define linkonce_odr void @_ZNSt9exceptionC2Ev(ptr noundef nonnull align 8 dereferenceable(8) %0) unnamed_addr #0 comdat align 2 {
  %2 = alloca ptr, align 8
  store ptr %0, ptr %2, align 8
  %3 = load ptr, ptr %2, align 8
  store ptr getelementptr inbounds ({ [5 x ptr] }, ptr @_ZTVSt9exception, i32 0, i32 0, i32 2), ptr %3, align 8
  ret void
}

; Function Attrs: mustprogress uwtable
define linkonce_odr void @_ZN3vcg20GLMeshAttributesInfo9ExceptionC2EPKc(ptr noundef nonnull align 8 dereferenceable(40) %0, ptr noundef %1) unnamed_addr #5 comdat align 2 personality ptr @__gxx_personality_v0 {
  %3 = alloca ptr, align 8
  %4 = alloca ptr, align 8
  %5 = alloca %"class.std::allocator.224", align 1
  %6 = alloca ptr, align 8
  %7 = alloca i32, align 4
  store ptr %0, ptr %3, align 8
  store ptr %1, ptr %4, align 8
  %8 = load ptr, ptr %3, align 8
  call void @_ZNSt9exceptionC2Ev(ptr noundef nonnull align 8 dereferenceable(8) %8) #4
  store ptr getelementptr inbounds ({ [5 x ptr] }, ptr @_ZTVN3vcg20GLMeshAttributesInfo9ExceptionE, i32 0, i32 0, i32 2), ptr %8, align 8
  %9 = getelementptr inbounds %"struct.vcg::GLMeshAttributesInfo::Exception", ptr %8, i32 0, i32 1
  %10 = load ptr, ptr %4, align 8
  call void @_ZNSaIcEC1Ev(ptr noundef nonnull align 1 dereferenceable(1) %5) #4
  invoke void @_ZNSt7__cxx1112basic_stringIcSt11char_traitsIcESaIcEEC1EPKcRKS3_(ptr noundef nonnull align 8 dereferenceable(32) %9, ptr noundef %10, ptr noundef nonnull align 1 dereferenceable(1) %5)
          to label %11 unwind label %12

11:                                               ; preds = %2
  call void @_ZNSaIcED1Ev(ptr noundef nonnull align 1 dereferenceable(1) %5) #4
  ret void

12:                                               ; preds = %2
  %13 = landingpad { ptr, i32 }
          cleanup
  %14 = extractvalue { ptr, i32 } %13, 0
  store ptr %14, ptr %6, align 8
  %15 = extractvalue { ptr, i32 } %13, 1
  store i32 %15, ptr %7, align 4
  call void @_ZNSaIcED1Ev(ptr noundef nonnull align 1 dereferenceable(1) %5) #4
  call void @_ZNSt9exceptionD2Ev(ptr noundef nonnull align 8 dereferenceable(8) %8) #4
  br label %16

16:                                               ; preds = %12
  %17 = load ptr, ptr %6, align 8
  %18 = load i32, ptr %7, align 4
  %19 = insertvalue { ptr, i32 } poison, ptr %17, 0
  %20 = insertvalue { ptr, i32 } %19, i32 %18, 1
  resume { ptr, i32 } %20
}

; Function Attrs: mustprogress nounwind uwtable
define linkonce_odr noundef i32 @_ZN3vcg20GLMeshAttributesInfo9ATT_NAMES9enumArityEv() #0 comdat align 2 {
  ret i32 7
}

; Function Attrs: mustprogress nounwind uwtable
define linkonce_odr noundef ptr @_ZNK10MainWindow20currentViewContainerEv(ptr noundef nonnull align 8 dereferenceable(1376) %0) #0 comdat align 2 {
  %2 = alloca ptr, align 8
  store ptr %0, ptr %2, align 8
  %3 = load ptr, ptr %2, align 8
  %4 = getelementptr inbounds %class.MainWindow, ptr %3, i32 0, i32 141
  %5 = load ptr, ptr %4, align 8
  ret ptr %5
}

; Function Attrs: mustprogress uwtable
define linkonce_odr void @_ZN3vcg20GLMeshAttributesInfo9ATT_NAMESC2Ej(ptr noundef nonnull align 4 dereferenceable(4) %0, i32 noundef %1) unnamed_addr #5 comdat align 2 personality ptr @__gxx_personality_v0 {
  %3 = alloca ptr, align 8
  %4 = alloca i32, align 4
  %5 = alloca ptr, align 8
  %6 = alloca i32, align 4
  store ptr %0, ptr %3, align 8
  store i32 %1, ptr %4, align 4
  %7 = load ptr, ptr %3, align 8
  %8 = load i32, ptr %4, align 4
  %9 = call noundef i32 @_ZN3vcg20GLMeshAttributesInfo9ATT_NAMES9enumArityEv()
  %10 = icmp uge i32 %8, %9
  br i1 %10, label %11, label %18

11:                                               ; preds = %2
  %12 = call ptr @__cxa_allocate_exception(i64 40) #4
  invoke void @_ZN3vcg20GLMeshAttributesInfo9ExceptionC2EPKc(ptr noundef nonnull align 8 dereferenceable(40) %12, ptr noundef @.str.135)
          to label %13 unwind label %14

13:                                               ; preds = %11
  call void @__cxa_throw(ptr %12, ptr @_ZTIN3vcg20GLMeshAttributesInfo9ExceptionE, ptr @_ZN3vcg20GLMeshAttributesInfo9ExceptionD2Ev) #19
  unreachable

14:                                               ; preds = %11
  %15 = landingpad { ptr, i32 }
          cleanup
  %16 = extractvalue { ptr, i32 } %15, 0
  store ptr %16, ptr %5, align 8
  %17 = extractvalue { ptr, i32 } %15, 1
  store i32 %17, ptr %6, align 4
  call void @__cxa_free_exception(ptr %12) #4
  br label %22

18:                                               ; preds = %2
  %19 = load i32, ptr %4, align 4
  %20 = getelementptr inbounds %"struct.vcg::GLMeshAttributesInfo::ATT_NAMES", ptr %7, i32 0, i32 0
  store i32 %19, ptr %20, align 4
  br label %21

21:                                               ; preds = %18
  ret void

22:                                               ; preds = %14
  %23 = load ptr, ptr %5, align 8
  %24 = load i32, ptr %6, align 4
  %25 = insertvalue { ptr, i32 } poison, ptr %23, 0
  %26 = insertvalue { ptr, i32 } %25, i32 %24, 1
  resume { ptr, i32 } %26
}

; Function Attrs: mustprogress uwtable
define linkonce_odr noundef ptr @_ZN10MainWindow7meshDocEv(ptr noundef nonnull align 8 dereferenceable(1376) %0) #5 comdat align 2 {
  %2 = alloca ptr, align 8
  %3 = alloca ptr, align 8
  store ptr %0, ptr %3, align 8
  %4 = load ptr, ptr %3, align 8
  %5 = call noundef ptr @_ZNK10MainWindow20currentViewContainerEv(ptr noundef nonnull align 8 dereferenceable(1376) %4)
  %6 = icmp ne ptr %5, null
  br i1 %6, label %7, label %10

7:                                                ; preds = %1
  %8 = call noundef ptr @_ZNK10MainWindow20currentViewContainerEv(ptr noundef nonnull align 8 dereferenceable(1376) %4)
  %9 = getelementptr inbounds %class.MultiViewer_Container, ptr %8, i32 0, i32 1
  store ptr %9, ptr %2, align 8
  br label %11

10:                                               ; preds = %1
  store ptr null, ptr %2, align 8
  br label %11

11:                                               ; preds = %10, %7
  %12 = load ptr, ptr %2, align 8
  ret ptr %12
}

; Function Attrs: mustprogress uwtable
define void @_ZN11LayerDialog28updateRenderingParametersTabEiRK15MLRenderingData(ptr noundef nonnull align 8 dereferenceable(256) %0, i32 noundef %1, ptr noundef nonnull align 8 dereferenceable(40) %2) #5 align 2 {
  %4 = alloca ptr, align 8
  %5 = alloca i32, align 4
  %6 = alloca ptr, align 8
  %7 = alloca ptr, align 8
  %8 = alloca %"struct.vcg::GLMeshAttributesInfo::ATT_NAMES", align 4
  %9 = alloca %"struct.vcg::GLMeshAttributesInfo::ATT_NAMES", align 4
  store ptr %0, ptr %4, align 8
  store i32 %1, ptr %5, align 4
  store ptr %2, ptr %6, align 8
  %10 = load ptr, ptr %4, align 8
  %11 = getelementptr inbounds %class.LayerDialog, ptr %10, i32 0, i32 18
  %12 = load ptr, ptr %11, align 8
  %13 = icmp ne ptr %12, null
  br i1 %13, label %14, label %59

14:                                               ; preds = %3
  %15 = getelementptr inbounds %class.LayerDialog, ptr %10, i32 0, i32 18
  %16 = load ptr, ptr %15, align 8
  %17 = load i32, ptr %5, align 4
  call void @_ZN24MLRenderingParametersTab19setAssociatedMeshIdEi(ptr noundef nonnull align 8 dereferenceable(72) %16, i32 noundef %17)
  %18 = getelementptr inbounds %class.LayerDialog, ptr %10, i32 0, i32 2
  %19 = load ptr, ptr %18, align 8
  %20 = icmp ne ptr %19, null
  br i1 %20, label %21, label %55

21:                                               ; preds = %14
  %22 = getelementptr inbounds %class.LayerDialog, ptr %10, i32 0, i32 2
  %23 = load ptr, ptr %22, align 8
  %24 = call noundef ptr @_ZN10MainWindow7meshDocEv(ptr noundef nonnull align 8 dereferenceable(1376) %23)
  %25 = icmp ne ptr %24, null
  br i1 %25, label %26, label %55

26:                                               ; preds = %21
  %27 = getelementptr inbounds %class.LayerDialog, ptr %10, i32 0, i32 2
  %28 = load ptr, ptr %27, align 8
  %29 = call noundef ptr @_ZN10MainWindow7meshDocEv(ptr noundef nonnull align 8 dereferenceable(1376) %28)
  %30 = load i32, ptr %5, align 4
  %31 = call noundef ptr @_ZN12MeshDocument7getMeshEj(ptr noundef nonnull align 8 dereferenceable(192) %29, i32 noundef %30)
  store ptr %31, ptr %7, align 8
  %32 = load ptr, ptr %7, align 8
  %33 = icmp ne ptr %32, null
  br i1 %33, label %34, label %54

34:                                               ; preds = %26
  %35 = load ptr, ptr %7, align 8
  %36 = call noundef zeroext i1 @_ZNK9MeshModel11hasDataMaskEi(ptr noundef nonnull align 8 dereferenceable(1288) %35, i32 noundef 1024)
  br i1 %36, label %37, label %45

37:                                               ; preds = %34
  %38 = load ptr, ptr %7, align 8
  %39 = call noundef zeroext i1 @_ZNK9MeshModel11hasDataMaskEi(ptr noundef nonnull align 8 dereferenceable(1288) %38, i32 noundef 2097152)
  br i1 %39, label %45, label %40

40:                                               ; preds = %37
  %41 = getelementptr inbounds %class.LayerDialog, ptr %10, i32 0, i32 18
  %42 = load ptr, ptr %41, align 8
  call void @_ZN3vcg20GLMeshAttributesInfo9ATT_NAMESC2Ej(ptr noundef nonnull align 4 dereferenceable(4) %8, i32 noundef 5)
  %43 = getelementptr inbounds %"struct.vcg::GLMeshAttributesInfo::ATT_NAMES", ptr %8, i32 0, i32 0
  %44 = load i32, ptr %43, align 4
  call void @_ZN24MLRenderingParametersTab16setTextureActionEN3vcg20GLMeshAttributesInfo9ATT_NAMESE(ptr noundef nonnull align 8 dereferenceable(72) %42, i32 %44)
  br label %50

45:                                               ; preds = %37, %34
  %46 = getelementptr inbounds %class.LayerDialog, ptr %10, i32 0, i32 18
  %47 = load ptr, ptr %46, align 8
  call void @_ZN3vcg20GLMeshAttributesInfo9ATT_NAMESC2Ej(ptr noundef nonnull align 4 dereferenceable(4) %9, i32 noundef 6)
  %48 = getelementptr inbounds %"struct.vcg::GLMeshAttributesInfo::ATT_NAMES", ptr %9, i32 0, i32 0
  %49 = load i32, ptr %48, align 4
  call void @_ZN24MLRenderingParametersTab16setTextureActionEN3vcg20GLMeshAttributesInfo9ATT_NAMESE(ptr noundef nonnull align 8 dereferenceable(72) %47, i32 %49)
  br label %50

50:                                               ; preds = %45, %40
  %51 = getelementptr inbounds %class.LayerDialog, ptr %10, i32 0, i32 18
  %52 = load ptr, ptr %51, align 8
  %53 = load ptr, ptr %7, align 8
  call void @_ZN24MLRenderingParametersTab16updateVisibilityEP9MeshModel(ptr noundef nonnull align 8 dereferenceable(72) %52, ptr noundef %53)
  br label %54

54:                                               ; preds = %50, %26
  br label %55

55:                                               ; preds = %54, %21, %14
  %56 = getelementptr inbounds %class.LayerDialog, ptr %10, i32 0, i32 18
  %57 = load ptr, ptr %56, align 8
  %58 = load ptr, ptr %6, align 8
  call void @_ZN24MLRenderingParametersTab33updateGUIAccordingToRenderingDataERK15MLRenderingData(ptr noundef nonnull align 8 dereferenceable(72) %57, ptr noundef nonnull align 8 dereferenceable(40) %58)
  br label %59

59:                                               ; preds = %55, %3
  ret void
}