; Function Attrs: mustprogress uwtable
define void @_ZN11LayerDialog28updateRenderingParametersTabEiRK15MLRenderingData(ptr nocapture noundef nonnull readonly align 8 dereferenceable(256) %0, i32 noundef %1, ptr noundef nonnull align 8 dereferenceable(40) %2) local_unnamed_addr #9 align 2 personality ptr @__gxx_personality_v0 {
  %4 = getelementptr inbounds i8, ptr %0, i64 248
  %5 = load ptr, ptr %4, align 8
  %.not = icmp eq ptr %5, null
  br i1 %.not, label %25, label %6

6:                                                ; preds = %3
  tail call void @_ZN24MLRenderingParametersTab19setAssociatedMeshIdEi(ptr noundef nonnull align 8 dereferenceable(72) %5, i32 noundef %1)
  %7 = getelementptr inbounds i8, ptr %0, i64 56
  %8 = load ptr, ptr %7, align 8
  %.not9 = icmp eq ptr %8, null
  br i1 %.not9, label %23, label %9

9:                                                ; preds = %6
  %10 = getelementptr inbounds i8, ptr %8, i64 1368
  %11 = load ptr, ptr %10, align 8
  %.not.i = icmp eq ptr %11, null
  br i1 %.not.i, label %23, label %12

12:                                               ; preds = %9
  %13 = getelementptr inbounds i8, ptr %11, i64 48
  %14 = tail call noundef ptr @_ZN12MeshDocument7getMeshEj(ptr noundef nonnull align 8 dereferenceable(192) %13, i32 noundef %1)
  %.not11 = icmp eq ptr %14, null
  br i1 %.not11, label %23, label %15

15:                                               ; preds = %12
  %16 = tail call noundef zeroext i1 @_ZNK9MeshModel11hasDataMaskEi(ptr noundef nonnull align 8 dereferenceable(1288) %14, i32 noundef 1024)
  br i1 %16, label %17, label %19

17:                                               ; preds = %15
  %18 = tail call noundef zeroext i1 @_ZNK9MeshModel11hasDataMaskEi(ptr noundef nonnull align 8 dereferenceable(1288) %14, i32 noundef 2097152)
  br i1 %18, label %19, label %20

19:                                               ; preds = %17, %15
  br label %20

20:                                               ; preds = %17, %19
  %.sink15 = phi i32 [ 6, %19 ], [ 5, %17 ]
  %21 = load ptr, ptr %4, align 8
  tail call void @_ZN24MLRenderingParametersTab16setTextureActionEN3vcg20GLMeshAttributesInfo9ATT_NAMESE(ptr noundef nonnull align 8 dereferenceable(72) %21, i32 %.sink15)
  %22 = load ptr, ptr %4, align 8
  tail call void @_ZN24MLRenderingParametersTab16updateVisibilityEP9MeshModel(ptr noundef nonnull align 8 dereferenceable(72) %22, ptr noundef nonnull %14)
  br label %23

23:                                               ; preds = %12, %20, %9, %6
  %24 = load ptr, ptr %4, align 8
  tail call void @_ZN24MLRenderingParametersTab33updateGUIAccordingToRenderingDataERK15MLRenderingData(ptr noundef nonnull align 8 dereferenceable(72) %24, ptr noundef nonnull align 8 dereferenceable(40) %2)
  br label %25

25:                                               ; preds = %23, %3
  ret void
}